; Function Attrs: nounwind uwtable
define internal i32 @rtsp_read_pause(ptr noundef %0) #0 {
  %2 = alloca %struct.RTSPMessageHeader, align 8
  %3 = getelementptr inbounds nuw i8, ptr %0, i64 24
  %4 = load ptr, ptr %3, align 8, !tbaa !4
  call void @llvm.lifetime.start.p0(i64 6960, ptr nonnull %2) #11
  %5 = getelementptr inbounds nuw i8, ptr %4, i64 32
  %6 = load i32, ptr %5, align 8, !tbaa !38
  %.not = icmp eq i32 %6, 1
  br i1 %.not, label %7, label %22

7:                                                ; preds = %1
  %8 = getelementptr inbounds nuw i8, ptr %4, i64 584
  %9 = load i32, ptr %8, align 8, !tbaa !48
  %10 = icmp eq i32 %9, 1
  br i1 %10, label %11, label %14

11:                                               ; preds = %7
  %12 = getelementptr inbounds nuw i8, ptr %4, i64 3704
  %13 = load i32, ptr %12, align 8, !tbaa !106
  %.not11 = icmp eq i32 %13, 0
  br i1 %.not11, label %14, label %21

14:                                               ; preds = %11, %7
  %15 = getelementptr inbounds nuw i8, ptr %4, i64 4768
  %16 = call i32 @ff_rtsp_send_cmd(ptr noundef nonnull %0, ptr noundef nonnull @.str.18, ptr noundef nonnull %15, ptr noundef null, ptr noundef nonnull %2, ptr noundef null) #11
  %17 = getelementptr inbounds nuw i8, ptr %2, i64 4
  %18 = load i32, ptr %17, align 4, !tbaa !49
  %.not12 = icmp eq i32 %18, 200
  br i1 %.not12, label %21, label %19

19:                                               ; preds = %14
  %20 = call i32 @ff_http_averror(i32 noundef %18, i32 noundef -1) #11
  br label %22

21:                                               ; preds = %11, %14
  store i32 2, ptr %5, align 8, !tbaa !38
  br label %22

22:                                               ; preds = %1, %21, %19
  %.0 = phi i32 [ 0, %21 ], [ %20, %19 ], [ 0, %1 ]
  call void @llvm.lifetime.end.p0(i64 6960, ptr nonnull %2) #11
  ret i32 %.0
}